Certificate:
    Data:
        Version: 3 (0x2)
        Serial Number: 1 (0x1)
        Signature Algorithm: sha1WithRSAEncryption
        Issuer: C=DK, L=Copenhagen, O=WinTLS, CN=WinTLS Intermediate Certificate Authority
        Validity
            Not Before: Aug 17 08:59:48 2022 GMT
            Not After : Aug 18 08:59:48 2122 GMT
        Subject: C=DK, L=Copenhagen, O=WinTLS, CN=wintls.test
        Subject Public Key Info:
            Public Key Algorithm: rsaEncryption
                RSA Public-Key: (2048 bit)
                Modulus:
                    00:b4:97:8c:f2:fd:42:fe:d8:bf:2d:40:39:7f:b0:
                    c0:fa:6c:bf:c7:69:cf:a1:1d:f3:14:d7:a5:ef:38:
                    d2:cd:f2:73:45:4c:92:72:4c:4f:3f:77:53:47:c4:
                    54:e6:9d:a4:40:d2:72:a9:c5:7b:a6:86:08:f3:fe:
                    d1:cc:95:d9:85:7f:ea:1d:4d:50:dc:07:44:4b:d9:
                    87:d9:d6:16:a7:54:89:bd:ec:ea:81:93:8a:f1:3b:
                    8f:09:95:51:cd:8a:fd:5b:cc:31:0e:5c:19:65:25:
                    5d:66:ca:ba:81:c0:83:b3:6b:a8:ac:8d:38:76:25:
                    d9:d6:a4:9a:9c:68:e4:15:1c:97:92:43:11:0c:8f:
                    44:fc:22:d0:c0:f8:7b:1e:d5:10:58:f2:3d:e1:41:
                    11:91:e4:d3:d2:f0:91:73:a9:3d:bb:e8:06:04:6d:
                    ec:3e:89:f2:88:57:89:f5:d9:29:55:2f:e8:ec:ba:
                    14:26:d8:81:d4:9b:2f:28:46:4f:10:8f:9c:03:9b:
                    e5:71:4e:59:ba:4e:4e:e1:34:9c:da:ed:4b:e4:fc:
                    04:5f:48:d8:21:db:92:aa:57:cf:39:7d:f1:f2:69:
                    86:4f:05:a1:15:e9:d0:74:59:7c:46:e7:05:1e:8c:
                    57:2a:50:56:9b:ed:60:8e:d6:bf:9f:45:29:37:cd:
                    fb:b1
                Exponent: 65537 (0x10001)
        X509v3 extensions:
            X509v3 Basic Constraints: 
                CA:FALSE
            X509v3 Subject Alternative Name: 
                DNS:wintls.test, DNS:*.wintls.test
            X509v3 Key Usage: 
                Digital Signature, Non Repudiation, Key Encipherment
    Signature Algorithm: sha1WithRSAEncryption
         a1:49:09:a6:70:13:39:cb:a8:60:35:ff:70:22:2e:ea:c8:ad:
         14:8c:6e:af:a7:86:19:13:8e:7f:2f:6b:93:8b:2a:25:73:df:
         ae:4d:10:84:73:3f:57:27:67:64:49:76:fb:79:05:2f:9b:48:
         b8:e0:db:90:be:78:dc:cd:e3:87:b9:1b:09:1b:64:bf:0c:79:
         c1:30:19:71:bf:a5:74:00:16:1a:0c:dd:6d:f2:ca:c7:66:96:
         86:64:bb:2c:c4:5e:69:1c:fd:b9:ea:60:03:69:e3:ab:b8:af:
         b1:7f:22:79:d5:aa:e6:7e:94:28:03:d7:c0:0f:94:84:86:f1:
         df:03:6e:34:20:5a:01:6a:d2:61:f7:e3:a4:af:c2:ab:cf:50:
         04:56:c6:91:f9:0a:b8:fe:1d:d0:49:57:3b:d1:a6:23:7f:cb:
         2e:b6:2c:db:1e:fd:3e:83:3f:52:10:60:05:da:cf:b1:66:94:
         44:ff:ae:de:f2:2f:29:4b:4f:fd:b1:76:de:7e:55:83:9e:4b:
         ac:50:b5:c4:07:af:60:5e:35:bb:23:cd:bc:6c:5c:f9:f4:c4:
         ae:f9:d9:d9:da:cf:18:a0:ee:34:98:ff:b3:a6:7c:bd:be:6f:
         e7:10:be:6c:0a:87:e7:02:dd:bc:3b:7e:aa:df:3c:d8:c7:79:
         84:89:ef:46:84:f0:7a:61:da:a0:ec:03:77:bf:5a:07:bf:8b:
         fa:c1:e4:f8:20:c7:97:5e:a6:d0:48:f9:e2:8b:3c:6b:c9:01:
         9d:2d:d4:6a:2e:1b:6e:b7:61:b8:1d:a0:fd:0f:df:72:10:99:
         29:d8:0d:e0:26:6d:ee:52:0a:56:3b:ea:d9:ca:c0:6f:b9:c9:
         37:fe:0e:ea:0b:74:42:5a:4c:93:72:87:39:2e:00:27:e5:26:
         92:89:5a:c0:0c:1a:c8:41:6a:b5:9a:91:67:81:ea:47:20:30:
         6f:03:ec:9f:b6:c7:60:6e:cf:d8:96:7b:01:71:e5:8f:79:b3:
         f6:63:e1:a5:4c:56:8d:7a:f6:e2:e1:74:60:d3:41:49:12:e1:
         28:df:13:61:d1:10:d2:92:b6:88:b4:19:27:41:4f:41:48:77:
         e1:57:76:75:f1:e1:84:da:41:01:dd:42:4c:b7:0a:9a:e3:23:
         a1:2f:cc:d8:84:a6:a2:f8:cd:77:c1:79:49:28:9c:60:f6:37:
         92:51:46:f9:a4:b0:d6:3d:86:73:33:86:8f:30:29:cd:df:45:
         24:f8:2e:f9:84:4f:87:df:ac:09:c1:db:29:8d:df:62:d5:72:
         8a:f3:90:24:80:04:17:13:60:3d:9b:1f:6f:17:d9:33:c6:1f:
         d0:46:9f:a2:f8:64:26:ee
-----BEGIN CERTIFICATE-----
MIIEbjCCAlagAwIBAgIBATANBgkqhkiG9w0BAQUFADBnMQswCQYDVQQGEwJESzET
MBEGA1UEBwwKQ29wZW5oYWdlbjEPMA0GA1UECgwGV2luVExTMTIwMAYDVQQDDClX
aW5UTFMgSW50ZXJtZWRpYXRlIENlcnRpZmljYXRlIEF1dGhvcml0eTAgFw0yMjA4
MTcwODU5NDhaGA8yMTIyMDgxODA4NTk0OFowSTELMAkGA1UEBhMCREsxEzARBgNV
BAcMCkNvcGVuaGFnZW4xDzANBgNVBAoMBldpblRMUzEUMBIGA1UEAwwLd2ludGxz
LnRlc3QwggEiMA0GCSqGSIb3DQEBAQUAA4IBDwAwggEKAoIBAQC0l4zy/UL+2L8t
QDl/sMD6bL/Hac+hHfMU16XvONLN8nNFTJJyTE8/d1NHxFTmnaRA0nKpxXumhgjz
/tHMldmFf+odTVDcB0RL2YfZ1hanVIm97OqBk4rxO48JlVHNiv1bzDEOXBllJV1m
yrqBwIOza6isjTh2JdnWpJqcaOQVHJeSQxEMj0T8ItDA+Hse1RBY8j3hQRGR5NPS
8JFzqT276AYEbew+ifKIV4n12SlVL+jsuhQm2IHUmy8oRk8Qj5wDm+VxTlm6Tk7h
NJza7Uvk/ARfSNgh25KqV885ffHyaYZPBaEV6dB0WXxG5wUejFcqUFab7WCO1r+f
RSk3zfuxAgMBAAGjQTA/MAkGA1UdEwQCMAAwJQYDVR0RBB4wHIILd2ludGxzLnRl
c3SCDSoud2ludGxzLnRlc3QwCwYDVR0PBAQDAgXgMA0GCSqGSIb3DQEBBQUAA4IC
AQChSQmmcBM5y6hgNf9wIi7qyK0UjG6vp4YZE45/L2uTiyolc9+uTRCEcz9XJ2dk
SXb7eQUvm0i44NuQvnjczeOHuRsJG2S/DHnBMBlxv6V0ABYaDN1t8srHZpaGZLss
xF5pHP256mADaeOruK+xfyJ51armfpQoA9fAD5SEhvHfA240IFoBatJh9+Okr8Kr
z1AEVsaR+Qq4/h3QSVc70aYjf8sutizbHv0+gz9SEGAF2s+xZpRE/67e8i8pS0/9
sXbeflWDnkusULXEB69gXjW7I828bFz59MSu+dnZ2s8YoO40mP+zpny9vm/nEL5s
CofnAt28O36q3zzYx3mEie9GhPB6Ydqg7AN3v1oHv4v6weT4IMeXXqbQSPniizxr
yQGdLdRqLhtut2G4HaD9D99yEJkp2A3gJm3uUgpWO+rZysBvuck3/g7qC3RCWkyT
coc5LgAn5SaSiVrADBrIQWq1mpFngepHIDBvA+yftsdgbs/YlnsBceWPebP2Y+Gl
TFaNevbi4XRg00FJEuEo3xNh0RDSkraItBknQU9BSHfhV3Z18eGE2kEB3UJMtwqa
4yOhL8zYhKai+M13wXlJKJxg9jeSUUb5pLDWPYZzM4aPMCnN30Uk+C75hE+H36wJ
wdspjd9i1XKK85AkgAQXE2A9mx9vF9kzxh/QRp+i+GQm7g==
-----END CERTIFICATE-----
