Certificate:
    Data:
        Version: 3 (0x2)
        Serial Number: 3 (0x3)
        Signature Algorithm: sha1WithRSAEncryption
        Issuer: C=DK, L=Copenhagen, O=WinTLS, CN=WinTLS Intermediate Certificate Authority
        Validity
            Not Before: Aug 17 08:59:48 2022 GMT
            Not After : Aug 18 08:59:48 2122 GMT
        Subject: C=DK, L=Copenhagen, O=WinTLS, CN=wintls.test
        Subject Public Key Info:
            Public Key Algorithm: rsaEncryption
                RSA Public-Key: (2048 bit)
                Modulus:
                    00:a3:0c:47:50:fa:c7:b5:0d:db:1d:6e:fb:a5:c4:
                    53:21:96:1e:7b:ad:7e:f9:df:84:23:a8:1a:88:69:
                    90:1f:5a:66:46:08:58:da:3f:ba:59:69:f8:af:da:
                    a3:a4:3f:47:c9:f8:6b:3b:7d:91:83:1f:7d:14:24:
                    96:d3:8c:62:5d:b9:e4:cc:12:c0:63:78:d3:71:bd:
                    83:04:7d:33:c9:38:e0:73:44:af:dc:e2:4a:04:5e:
                    98:0d:47:78:9d:20:c3:62:fd:8c:33:9e:f4:67:f7:
                    e5:47:ab:c7:b9:34:e0:48:9c:f9:c9:a7:7e:9c:fa:
                    b8:47:d7:32:af:31:5b:90:2d:85:da:46:86:dd:43:
                    65:0d:a2:1d:4f:9b:9e:9e:d5:6a:b5:af:85:64:22:
                    00:19:5a:86:41:43:c0:ea:95:4a:86:e8:77:b7:61:
                    46:11:19:08:23:98:29:a2:04:6c:e8:a0:09:ea:25:
                    66:ff:e6:a1:67:63:de:d6:62:2a:3a:fc:c7:3a:75:
                    7a:fd:c2:01:75:dd:20:e2:6c:f2:e0:59:88:aa:c6:
                    15:67:1a:e4:d8:f6:7d:27:dd:c9:32:d5:6e:95:2a:
                    36:17:6a:ed:0a:a2:05:4b:76:cf:1f:f0:5c:49:96:
                    50:c1:da:2d:93:ec:9f:69:8b:dd:63:03:7e:07:9c:
                    f8:b1
                Exponent: 65537 (0x10001)
        X509v3 extensions:
            X509v3 Basic Constraints: 
                CA:FALSE
            X509v3 Subject Alternative Name: 
                DNS:wintls.test, DNS:*.wintls.test
            Authority Information Access: 
                OCSP - URI:http://localhost:5000

            X509v3 Key Usage: 
                Digital Signature, Non Repudiation, Key Encipherment
    Signature Algorithm: sha1WithRSAEncryption
         b1:fd:37:03:95:e5:36:cc:08:b6:eb:b8:ab:73:74:9f:f3:9e:
         6c:7b:d2:37:12:47:b7:e7:2b:46:2b:23:34:cb:5e:44:42:b1:
         e4:a5:31:3a:f9:bd:d0:c9:ed:24:40:7c:02:51:46:48:b9:bc:
         6c:32:94:e5:50:80:a2:59:d5:4e:98:0d:ca:b3:3f:e8:f3:9d:
         3c:fd:b0:51:a5:1f:5b:2b:06:d5:06:e3:f2:ec:ca:b7:76:e4:
         61:6b:15:a2:32:70:87:8c:0e:81:9f:35:2c:2d:ff:5e:f0:4f:
         89:ae:ba:19:3b:de:60:e1:af:b6:06:05:19:d1:88:3e:03:2d:
         d5:f4:a2:d2:cb:6e:f3:fc:fd:9e:77:09:67:85:28:f9:f3:ec:
         a3:6e:fa:0d:14:0e:3b:54:1f:14:78:c3:ba:fc:f8:fa:8e:52:
         c4:cd:58:a6:65:9f:8e:02:1a:d4:30:30:7e:5d:a4:6c:16:0d:
         cc:6b:4b:1f:4a:74:72:b4:12:da:74:96:17:9e:a8:88:a6:49:
         3f:5b:93:97:2e:45:fe:e6:11:6f:84:b0:b7:51:6f:da:88:cc:
         67:3d:86:96:9a:15:8e:5f:7d:f3:53:8f:80:2a:2b:88:57:35:
         5c:b9:66:f8:6f:90:11:c6:6c:38:de:19:42:ac:7c:3d:70:b5:
         d2:ef:b2:c6:d2:8f:80:34:d6:c4:58:57:11:c0:d5:46:5a:42:
         30:73:dd:2c:7f:da:5d:5e:9a:49:93:00:86:9f:16:51:a2:9d:
         ad:bf:a9:cb:7c:0c:6a:14:b3:c9:22:5c:21:28:98:7a:78:ae:
         23:e3:b6:86:ce:47:b1:cb:01:72:5f:bc:07:89:63:91:0f:ab:
         89:85:9f:f6:dc:f1:9a:21:97:51:9b:80:5c:b1:a1:ba:5c:ee:
         96:30:ef:6e:49:2e:32:1e:4b:88:ed:3c:09:5d:cb:d4:c6:bf:
         96:cb:fc:07:b2:ba:15:73:9c:2d:c9:60:70:c1:a4:1c:61:a7:
         10:55:a1:1b:3b:51:0d:a0:6f:c1:8e:7b:0b:59:73:1f:cf:64:
         35:2f:23:af:69:91:3c:26:49:dc:89:b6:2c:67:b0:b4:c6:0b:
         82:fe:a8:3e:81:2d:23:8b:94:17:ba:e0:3b:76:1a:7e:fb:07:
         c1:1d:27:49:84:74:ef:2c:1d:d2:39:52:4e:f7:70:2f:75:73:
         7a:f7:e7:13:05:0c:28:06:64:c5:5b:d1:dd:e7:3b:6d:f6:da:
         a6:7c:9e:0a:00:8c:58:01:f4:a7:61:82:55:1b:f6:d6:59:7e:
         9c:4e:c7:87:02:bd:23:0d:17:62:f6:9a:dd:6d:52:a9:fc:20:
         72:4c:7d:97:be:19:3a:19
-----BEGIN CERTIFICATE-----
MIIEoTCCAomgAwIBAgIBAzANBgkqhkiG9w0BAQUFADBnMQswCQYDVQQGEwJESzET
MBEGA1UEBwwKQ29wZW5oYWdlbjEPMA0GA1UECgwGV2luVExTMTIwMAYDVQQDDClX
aW5UTFMgSW50ZXJtZWRpYXRlIENlcnRpZmljYXRlIEF1dGhvcml0eTAgFw0yMjA4
MTcwODU5NDhaGA8yMTIyMDgxODA4NTk0OFowSTELMAkGA1UEBhMCREsxEzARBgNV
BAcMCkNvcGVuaGFnZW4xDzANBgNVBAoMBldpblRMUzEUMBIGA1UEAwwLd2ludGxz
LnRlc3QwggEiMA0GCSqGSIb3DQEBAQUAA4IBDwAwggEKAoIBAQCjDEdQ+se1Ddsd
bvulxFMhlh57rX7534QjqBqIaZAfWmZGCFjaP7pZafiv2qOkP0fJ+Gs7fZGDH30U
JJbTjGJdueTMEsBjeNNxvYMEfTPJOOBzRK/c4koEXpgNR3idIMNi/YwznvRn9+VH
q8e5NOBInPnJp36c+rhH1zKvMVuQLYXaRobdQ2UNoh1Pm56e1Wq1r4VkIgAZWoZB
Q8DqlUqG6He3YUYRGQgjmCmiBGzooAnqJWb/5qFnY97WYio6/Mc6dXr9wgF13SDi
bPLgWYiqxhVnGuTY9n0n3cky1W6VKjYXau0KogVLds8f8FxJllDB2i2T7J9pi91j
A34HnPixAgMBAAGjdDByMAkGA1UdEwQCMAAwJQYDVR0RBB4wHIILd2ludGxzLnRl
c3SCDSoud2ludGxzLnRlc3QwMQYIKwYBBQUHAQEEJTAjMCEGCCsGAQUFBzABhhVo
dHRwOi8vbG9jYWxob3N0OjUwMDAwCwYDVR0PBAQDAgXgMA0GCSqGSIb3DQEBBQUA
A4ICAQCx/TcDleU2zAi267irc3Sf855se9I3Eke35ytGKyM0y15EQrHkpTE6+b3Q
ye0kQHwCUUZIubxsMpTlUICiWdVOmA3Ksz/o8508/bBRpR9bKwbVBuPy7Mq3duRh
axWiMnCHjA6BnzUsLf9e8E+JrroZO95g4a+2BgUZ0Yg+Ay3V9KLSy27z/P2edwln
hSj58+yjbvoNFA47VB8UeMO6/Pj6jlLEzVimZZ+OAhrUMDB+XaRsFg3Ma0sfSnRy
tBLadJYXnqiIpkk/W5OXLkX+5hFvhLC3UW/aiMxnPYaWmhWOX33zU4+AKiuIVzVc
uWb4b5ARxmw43hlCrHw9cLXS77LG0o+ANNbEWFcRwNVGWkIwc90sf9pdXppJkwCG
nxZRop2tv6nLfAxqFLPJIlwhKJh6eK4j47aGzkexywFyX7wHiWORD6uJhZ/23PGa
IZdRm4BcsaG6XO6WMO9uSS4yHkuI7TwJXcvUxr+Wy/wHsroVc5wtyWBwwaQcYacQ
VaEbO1ENoG/BjnsLWXMfz2Q1LyOvaZE8JkncibYsZ7C0xguC/qg+gS0ji5QXuuA7
dhp++wfBHSdJhHTvLB3SOVJO93AvdXN69+cTBQwoBmTFW9Hd5ztt9tqmfJ4KAIxY
AfSnYYJVG/bWWX6cTseHAr0jDRdi9prdbVKp/CByTH2Xvhk6GQ==
-----END CERTIFICATE-----
-----BEGIN CERTIFICATE-----
MIIGMzCCBBugAwIBAgIUZPo2HLHA4VBhw/UfWmyad97V2IYwDQYJKoZIhvcNAQEL
BQAwXzELMAkGA1UEBhMCREsxEzARBgNVBAcMCkNvcGVuaGFnZW4xDzANBgNVBAoM
BldpblRMUzEqMCgGA1UEAwwhV2luVExTIFJvb3QgQ2VydGlmaWNhdGUgQXV0aG9y
aXR5MCAXDTIyMDgxNzA4NTk0OFoYDzIxMjIwODE4MDg1OTQ4WjBnMQswCQYDVQQG
EwJESzETMBEGA1UEBwwKQ29wZW5oYWdlbjEPMA0GA1UECgwGV2luVExTMTIwMAYD
VQQDDClXaW5UTFMgSW50ZXJtZWRpYXRlIENlcnRpZmljYXRlIEF1dGhvcml0eTCC
AiIwDQYJKoZIhvcNAQEBBQADggIPADCCAgoCggIBAMLhC5DURloZM2f35ZjRwo4b
nvhp9EhSfo75v+Xh/72+KPwS8yHtzrZJQZDBc7N47bdKPEwCeWZdWZUVPyYfO4tX
UPmxH43ntTG1jZBeafj0qL/4HdYBG9eVMCgggdCaWHDkdtX/t1y89fKMJUBfSfAE
m9VvIymBns37PhcIAKixw3MFIW4zKGeoWHlHIsdG7aBc5itUa5eyzlOI2oDUFeEL
X/USbY0U9iYy0m/P1oF5dBV8CvYeRhAb10g2uM1X4bM1G9bl7LjG458TfKpd+2Sl
G/A0Q3VdRB1x9/59qqeRQJvS8XLtoiBn19jAlpSAbijDCe3pkGSVIFoQepo6/D/2
FzcrVYZHZQRLURgWIF5vMtu4uA01ITqmYqU9ewdEARsN5l9xjNKWygQk4KQsEuGq
rhAnYErdqJ4X0hhU0SjwUXbBrImADbE1RnHos+WPai5lLwcgp7u09YxSMj3qwAPG
GEM/tRNcES58Mqh6cuVfcCz28q6fHKGCHQf3wYDl8Qma0C/CnP0EiqS0D0pxD1V5
Kroa01KI9k4TdKeM3F2UeA6g2CzAozsCiFvG3kQ6V7GG6vCluznkAJNZRXtQvkyp
SAATj8SkNMAuq80afs8CzjEeQjuKjq2yCKMDKtlyX0XzlnLdob3G1dAPJvsxIUZC
/cNfBIJDGshIrfEsy37nAgMBAAGjgdwwgdkwHQYDVR0OBBYEFP2fXHN4oDNY9BY4
7N4ZqlXTSu2HMIGcBgNVHSMEgZQwgZGAFAaUb1BxnOngKFR/E+SSyoX1z6C2oWOk
YTBfMQswCQYDVQQGEwJESzETMBEGA1UEBwwKQ29wZW5oYWdlbjEPMA0GA1UECgwG
V2luVExTMSowKAYDVQQDDCFXaW5UTFMgUm9vdCBDZXJ0aWZpY2F0ZSBBdXRob3Jp
dHmCFAWSPkjxA+P2vOdCwnlx1XayPacaMAwGA1UdEwQFMAMBAf8wCwYDVR0PBAQD
AgEGMA0GCSqGSIb3DQEBCwUAA4ICAQASF0P49gjruM0dgbfnFUkdLclC5klkSnOu
bHjgzD96is+l/IhC0cEcXtFJ1goJ8gYUELZJaqKtO4tWiTt9rbLsYxdxM/qyYYXq
TSlu2nWaqT4DnLDUtybIrQlf6GNeC24TL+0kww4zl1UhB0Lp73Hj4uZdMGXumjiz
EwXMdjFC02kp2TPVdAFpupPfccCr8jGwjGqQPb0wahVB87BqFFJCu2lseDgYYiDi
Eb0GMZSvfAg0GE0su+rbMBgjy5DSWMxCCVJpgyrJm3IGAugTTT/FD1YHF6ecozE8
dQCqGLYDVxi/MWjQ6Ns2tU1qWsgmWBTWx0YIZ5PgCujuo5Z9ekAZPUqp9voSEYFB
QUq0+8HEfbOd1Eq+0ArplNJrHmG864vTQMeh2AdXRKx/eOFHs/t1QLBjFzNp762p
4vTYWq1Fd6kCtajCrATMrx0Pr7ObTZqa3qHdRn1leFogA4Z9j2qUmFZSXs3wU1zr
wyKoNBJ6+Fon0coa6sFMjV7d/mpqG6V5vM7rrx0z8CVYQxDpKKf3CKh/7trbC45+
J0rNDliapTlsU0jo2bRt8xWx3gma2v2QNf/T+cRSQsfqFkyiWL6Cqvftb0g8cK8m
Jn/63MXOoOdULNqoFL5S5JsKuDZXHQWI0y2IRedIZ+a4Y/HTj+bE9U5QtRhk29rl
HBQcQokDeg==
-----END CERTIFICATE-----
-----BEGIN CERTIFICATE-----
MIIGKzCCBBOgAwIBAgIUBZI+SPED4/a850LCeXHVdrI9pxowDQYJKoZIhvcNAQEL
BQAwXzELMAkGA1UEBhMCREsxEzARBgNVBAcMCkNvcGVuaGFnZW4xDzANBgNVBAoM
BldpblRMUzEqMCgGA1UEAwwhV2luVExTIFJvb3QgQ2VydGlmaWNhdGUgQXV0aG9y
aXR5MCAXDTIyMDgxNzA4NTk0NVoYDzIxMjIwODE4MDg1OTQ1WjBfMQswCQYDVQQG
EwJESzETMBEGA1UEBwwKQ29wZW5oYWdlbjEPMA0GA1UECgwGV2luVExTMSowKAYD
VQQDDCFXaW5UTFMgUm9vdCBDZXJ0aWZpY2F0ZSBBdXRob3JpdHkwggIiMA0GCSqG
SIb3DQEBAQUAA4ICDwAwggIKAoICAQDA7qd/UIiTVlW+lr551aMLXowrEI+YOalv
KGJwkCVkW4n871V4FpSrepGxk6Uz+XKZ66irzNZq3XJ82VW8Xg8HAisxA1xr/1d1
GYvC6WhZ/dTWyU8RhviiRAX8q4+tBU3CTikA8lUZQhPMKOVCIljlO5U9xlqBwy87
yZ99EcpO5KAwvy3sW70DN9Pl/Cx7iIxlTYp0P6mSB/DtNwJjkE3prvScLmMChCRj
h4/v1O8ksRQsO0oN56Ix1xo8r/qVrinWuGJSXx7brFruKoSkE0sZonNntXG5ftbt
o+1/AKgwQfGplT7AbG10bAKaK7hkFkxRDqY0BRW1ZXt0fZRUw29BvyCPSrGZMMdv
RGeVeYCCsUUIYbf8zqO9ZtZCFDtiAA1RDyXl6191r1JQwtk6PSxopVLNw7wU6krr
WJCK7RK8K2rDw8ZyOzxtpYVAGlpv6aFUWSYJMhoBYeROAH5Z/yK/RHzidhj8U96a
drK+DmAVWQim7r3RCN9m+RlDYBTWwWeIVaX3p7hDzL3zTiRMTqgl5IpPNg/9Ita0
ZkWCGrxaZ3SlUcSavDuAUipQVvoA807aI/VBwZazvxAp8Ucx40AyHwYEkhupOV3j
6IdM5p1BrNRLFsLxavbx9k6H9M30pEhmKRXk0WKRBLfFeZj+luaER7lAAAsnsxZ4
y/+rwSEuuQIDAQABo4HcMIHZMB0GA1UdDgQWBBQGlG9QcZzp4ChUfxPkksqF9c+g
tjCBnAYDVR0jBIGUMIGRgBQGlG9QcZzp4ChUfxPkksqF9c+gtqFjpGEwXzELMAkG
A1UEBhMCREsxEzARBgNVBAcMCkNvcGVuaGFnZW4xDzANBgNVBAoMBldpblRMUzEq
MCgGA1UEAwwhV2luVExTIFJvb3QgQ2VydGlmaWNhdGUgQXV0aG9yaXR5ghQFkj5I
8QPj9rznQsJ5cdV2sj2nGjAMBgNVHRMEBTADAQH/MAsGA1UdDwQEAwIBBjANBgkq
hkiG9w0BAQsFAAOCAgEAvYSKRT2FxSW7gp32sOUtHwq1o3NrsD0WBvp2PJTdyRDZ
cwOJfNpn6WFnB9z+ESe4n8Ib/GpxFKbvYyOTyGEmrrhJx1KBQuGdVgv7YOdZdh7M
ezkEMNR7hqNzeTLlknPjwJS40WUmlQhK4hzMFEpnDSSKJSZnUYVKUQ04OtFfX6rD
gZIz1Ft9mmQEdsBuwU/HbRO3dcpt5FNIzHj6g3P3ODjxkQX6ETOzHCM9MKMrwKSA
QpHOdaa0+PYZ/oJSa8pNS3YzU2+iwcQi3RXsvFTssTzVzgQkx24Fs8Py9Up4khQh
n60o6aSQhOCFdUfLIj/l3jJizD8BPilFxxWcCtsxNjZPFPG82pvIndto/HkzHz1p
6Az6ueOUAJiF6LVot5csDSyGQUsCykEqaTKJ25kkhpIGNPTdAD6D7xbehPqSopWm
qmEsObgPugHOAtM5YL2nvMphKgz/68JDO/7cp+a6Z9zxga8ghGxNX8tsN0PF7Bgh
oFgVBTa4SA5E94rCxG/Fn/prAgoeDruWaOFZhqYl2fq/JU0wu7QPHie/s8zCbLj5
dPO3dSK3CL/dUlrOZMLQiUUc7hjYef1OSmGj9BNPvOU/dZZDavZcSuJnlBtEXZIF
PdbgQft//ficVNs9brzknay22Xqk+EE6iT2yVutgj7gBRLVkD8zHDz3Aj75TUa8=
-----END CERTIFICATE-----
