Certificate:
    Data:
        Version: 3 (0x2)
        Serial Number: 4 (0x4)
        Signature Algorithm: sha1WithRSAEncryption
        Issuer: C=DK, L=Copenhagen, O=WinTLS, CN=WinTLS Intermediate Certificate Authority
        Validity
            Not Before: Aug 17 08:59:48 2022 GMT
            Not After : Aug 18 08:59:48 2122 GMT
        Subject: C=DK, L=Copenhagen, O=WinTLS, CN=WinTLS Intermediate Certificate Authority OCSP signer
        Subject Public Key Info:
            Public Key Algorithm: rsaEncryption
                RSA Public-Key: (4096 bit)
                Modulus:
                    00:e5:91:4c:ec:60:03:5d:08:59:3b:8a:3e:7e:4c:
                    49:b1:a4:91:f9:6f:36:1a:18:db:41:d0:1d:d0:53:
                    dd:16:da:85:bc:fc:26:73:ca:ac:22:a9:f2:7a:83:
                    77:65:24:94:2a:8a:0a:95:3a:c2:5b:bb:c5:aa:fc:
                    b9:56:82:f5:a5:99:1d:2c:07:18:a8:61:97:7e:94:
                    db:b7:a8:92:9a:f2:6b:d6:57:f2:06:a6:b6:f9:36:
                    ea:0f:81:16:48:ef:34:d4:70:db:91:ef:2d:0a:41:
                    21:55:70:2d:d8:11:f7:34:db:44:54:64:bc:c3:2f:
                    94:33:14:e2:c5:2c:1b:a9:89:26:b0:bf:96:9c:73:
                    a0:e4:f0:9a:d9:c7:c4:10:f3:28:3f:6f:e3:f3:b4:
                    24:0e:21:24:7a:bf:61:ff:82:88:e1:ec:58:65:07:
                    00:51:3c:c4:6b:08:d4:4f:81:34:63:c4:ba:31:bf:
                    df:ef:ea:05:ce:d7:0e:06:53:39:87:82:b8:d2:dd:
                    0f:b2:85:d6:9c:a5:17:26:ba:10:bc:c9:16:a0:10:
                    6e:d3:a6:08:92:5e:48:5f:18:7e:ee:fd:b3:b4:56:
                    6f:cb:c1:25:6b:4c:df:fa:73:a2:75:b1:ed:a9:54:
                    21:57:22:eb:97:d1:c1:3e:be:6f:50:da:4a:fd:52:
                    4c:9a:94:bc:6b:ec:04:c1:e3:78:3f:ba:29:63:bc:
                    91:16:8a:75:f3:67:f7:00:2f:dd:fa:eb:ec:ac:a3:
                    a7:7d:bd:31:a4:df:75:7e:33:fc:a1:c5:1e:a1:59:
                    26:19:a6:c8:46:85:8b:0e:ec:7d:aa:54:4d:44:11:
                    75:15:6f:c6:93:ff:01:9e:2b:4c:2b:04:32:3c:18:
                    c0:db:10:73:b4:25:86:54:ca:74:9c:2a:31:5c:00:
                    38:42:7d:b4:59:92:df:0a:35:0d:e0:1b:3d:d9:2e:
                    54:c7:8f:73:93:27:06:d6:c9:50:62:4f:e5:2b:71:
                    db:ec:e2:e9:05:0c:22:56:49:ef:99:c7:e2:f8:93:
                    e8:39:36:1c:07:3e:bd:e8:72:df:62:88:73:c6:ba:
                    ae:31:df:86:74:69:e1:d4:e6:fc:81:4c:2e:a7:bf:
                    61:4e:6e:96:e8:8e:30:63:0e:d7:51:73:c4:d3:5e:
                    c1:27:a4:24:94:e0:80:da:ac:e7:75:49:e4:25:b8:
                    a1:c8:2f:d2:a8:8e:68:1a:17:86:be:f0:0b:d5:a2:
                    a1:f4:d9:e2:93:b9:51:11:f3:9c:87:67:6b:ae:0a:
                    ed:59:83:c7:32:6e:b6:34:51:6a:d7:d0:2b:3a:fa:
                    5e:b9:19:1d:fc:99:b2:3d:11:aa:37:e6:b7:35:36:
                    a9:5b:c9
                Exponent: 65537 (0x10001)
        X509v3 extensions:
            X509v3 Basic Constraints: 
                CA:FALSE
            X509v3 Key Usage: 
                Digital Signature, Non Repudiation, Key Encipherment
            X509v3 Extended Key Usage: 
                OCSP Signing
    Signature Algorithm: sha1WithRSAEncryption
         5c:04:b3:8a:53:cb:8e:c2:bb:fa:8a:1c:2c:fc:1a:8f:f0:11:
         ee:b5:f4:c7:66:b7:99:72:63:30:5e:48:ea:e5:59:37:c0:ea:
         e1:c1:81:7e:6d:26:ea:f7:c7:eb:42:3c:a3:1c:92:70:d2:4d:
         6c:03:06:8c:bb:3a:af:70:e0:b5:bd:4a:a8:39:84:10:d9:43:
         aa:77:7d:25:9a:bc:72:79:03:ea:8a:c1:db:15:a8:34:13:a5:
         30:66:55:66:6a:06:bd:12:0a:67:c3:0a:4d:06:e0:15:53:59:
         ed:be:9b:90:07:9d:0b:92:ed:74:76:99:67:e3:d5:fe:74:e3:
         82:08:13:0d:ea:57:dc:af:73:19:40:b1:f4:60:71:d5:4e:66:
         67:ae:32:af:40:fc:79:2a:65:da:56:36:f8:f6:26:72:42:e5:
         42:18:41:15:2f:46:f8:82:d0:57:50:51:c5:10:4c:0e:a2:82:
         44:3b:44:85:b4:c5:a3:93:3a:72:fc:75:62:9a:30:c2:b8:ba:
         b6:0d:d5:d9:be:e6:bb:1a:da:42:6a:f4:48:de:30:b4:6c:cc:
         ed:9b:b8:a0:12:54:9d:26:78:0b:5d:ec:38:9a:c4:ad:1c:60:
         b1:01:fc:3e:2a:5a:ac:b6:ed:5e:f0:8c:30:66:52:db:9b:61:
         8c:5d:df:36:14:2c:fe:4d:82:a8:13:df:a5:e1:1c:fe:02:f0:
         2c:88:fe:39:51:e7:a4:80:4b:2d:28:95:b7:6c:8d:2f:a0:e2:
         f5:44:16:eb:39:09:0e:d5:27:8f:f4:92:b6:7f:34:0f:ca:ed:
         29:38:52:77:95:b5:06:23:ec:23:57:fe:a8:4c:77:2b:24:d0:
         bb:f4:12:3e:f9:fa:59:45:50:8c:76:c7:23:0d:9c:23:0c:ab:
         e1:6d:55:62:ce:dd:55:41:77:f2:40:8e:25:c6:a8:d5:a5:b8:
         fc:51:d7:b9:e1:17:8d:4c:82:45:b0:7c:9c:4c:f0:d0:40:3e:
         14:18:04:17:f6:ae:b3:c5:db:db:86:7a:e4:b9:79:6d:a4:8c:
         dd:e2:95:56:6f:82:a1:4e:cc:aa:76:0a:eb:4d:d2:f5:ed:9b:
         f4:34:a1:d7:7a:95:57:c7:6b:e0:b9:f6:b1:17:f6:8a:73:c4:
         8a:97:ac:c9:5c:28:30:56:66:3a:44:74:1c:07:43:5f:a8:36:
         11:f1:95:9f:6c:34:c9:2c:2a:24:5e:4f:3f:9f:7f:58:95:f3:
         35:a9:d8:67:a7:3d:1f:ae:3e:26:0d:87:c2:f6:9d:19:cf:ac:
         d4:12:a5:4a:1f:dc:cb:c2:7a:c1:8e:93:9a:98:8a:2c:20:52:
         1f:02:da:63:ce:ae:7c:e3
-----BEGIN CERTIFICATE-----
MIIFhjCCA26gAwIBAgIBBDANBgkqhkiG9w0BAQUFADBnMQswCQYDVQQGEwJESzET
MBEGA1UEBwwKQ29wZW5oYWdlbjEPMA0GA1UECgwGV2luVExTMTIwMAYDVQQDDClX
aW5UTFMgSW50ZXJtZWRpYXRlIENlcnRpZmljYXRlIEF1dGhvcml0eTAgFw0yMjA4
MTcwODU5NDhaGA8yMTIyMDgxODA4NTk0OFowczELMAkGA1UEBhMCREsxEzARBgNV
BAcMCkNvcGVuaGFnZW4xDzANBgNVBAoMBldpblRMUzE+MDwGA1UEAww1V2luVExT
IEludGVybWVkaWF0ZSBDZXJ0aWZpY2F0ZSBBdXRob3JpdHkgT0NTUCBzaWduZXIw
ggIiMA0GCSqGSIb3DQEBAQUAA4ICDwAwggIKAoICAQDlkUzsYANdCFk7ij5+TEmx
pJH5bzYaGNtB0B3QU90W2oW8/CZzyqwiqfJ6g3dlJJQqigqVOsJbu8Wq/LlWgvWl
mR0sBxioYZd+lNu3qJKa8mvWV/IGprb5NuoPgRZI7zTUcNuR7y0KQSFVcC3YEfc0
20RUZLzDL5QzFOLFLBupiSawv5acc6Dk8JrZx8QQ8yg/b+PztCQOISR6v2H/gojh
7FhlBwBRPMRrCNRPgTRjxLoxv9/v6gXO1w4GUzmHgrjS3Q+yhdacpRcmuhC8yRag
EG7TpgiSXkhfGH7u/bO0Vm/LwSVrTN/6c6J1se2pVCFXIuuX0cE+vm9Q2kr9Ukya
lLxr7ATB43g/uiljvJEWinXzZ/cAL9366+yso6d9vTGk33V+M/yhxR6hWSYZpshG
hYsO7H2qVE1EEXUVb8aT/wGeK0wrBDI8GMDbEHO0JYZUynScKjFcADhCfbRZkt8K
NQ3gGz3ZLlTHj3OTJwbWyVBiT+Urcdvs4ukFDCJWSe+Zx+L4k+g5NhwHPr3oct9i
iHPGuq4x34Z0aeHU5vyBTC6nv2FObpbojjBjDtdRc8TTXsEnpCSU4IDarOd1SeQl
uKHIL9KojmgaF4a+8AvVoqH02eKTuVER85yHZ2uuCu1Zg8cybrY0UWrX0Cs6+l65
GR38mbI9Eao35rc1NqlbyQIDAQABoy8wLTAJBgNVHRMEAjAAMAsGA1UdDwQEAwIF
4DATBgNVHSUEDDAKBggrBgEFBQcDCTANBgkqhkiG9w0BAQUFAAOCAgEAXASzilPL
jsK7+oocLPwaj/AR7rX0x2a3mXJjMF5I6uVZN8Dq4cGBfm0m6vfH60I8oxyScNJN
bAMGjLs6r3Dgtb1KqDmEENlDqnd9JZq8cnkD6orB2xWoNBOlMGZVZmoGvRIKZ8MK
TQbgFVNZ7b6bkAedC5LtdHaZZ+PV/nTjgggTDepX3K9zGUCx9GBx1U5mZ64yr0D8
eSpl2lY2+PYmckLlQhhBFS9G+ILQV1BRxRBMDqKCRDtEhbTFo5M6cvx1Ypowwri6
tg3V2b7muxraQmr0SN4wtGzM7Zu4oBJUnSZ4C13sOJrErRxgsQH8PiparLbtXvCM
MGZS25thjF3fNhQs/k2CqBPfpeEc/gLwLIj+OVHnpIBLLSiVt2yNL6Di9UQW6zkJ
DtUnj/SStn80D8rtKThSd5W1BiPsI1f+qEx3KyTQu/QSPvn6WUVQjHbHIw2cIwyr
4W1VYs7dVUF38kCOJcao1aW4/FHXueEXjUyCRbB8nEzw0EA+FBgEF/aus8Xb24Z6
5Ll5baSM3eKVVm+CoU7MqnYK603S9e2b9DSh13qVV8dr4Ln2sRf2inPEipesyVwo
MFZmOkR0HAdDX6g2EfGVn2w0ySwqJF5PP59/WJXzNanYZ6c9H64+Jg2HwvadGc+s
1BKlSh/cy8J6wY6TmpiKLCBSHwLaY86ufOM=
-----END CERTIFICATE-----
